target datalayout = "e-m:e-p270:32:32-p271:32:32-p272:64:64-i64:64-i128:128-f80:128-n8:16:32:64-S128"
target triple = "x86_64-pc-linux-gnu"

; Function Attrs: nounwind uwtable
define internal i32 @strmatch(ptr noundef %0, ptr noundef %1) #0 {
  %3 = alloca i32, align 4
  %4 = alloca ptr, align 8
  %5 = alloca ptr, align 8
  %6 = alloca i32, align 4
  %7 = alloca i32, align 4
  store ptr %0, ptr %4, align 8, !tbaa !4
  store ptr %1, ptr %5, align 8, !tbaa !4
  call void @llvm.lifetime.start.p0(i64 4, ptr %6) #12
  store i32 0, ptr %6, align 4, !tbaa !17
  br label %8

8:                                                ; preds = %31, %2
  %9 = load ptr, ptr %5, align 8, !tbaa !4
  %10 = load i32, ptr %6, align 4, !tbaa !17
  %11 = sext i32 %10 to i64
  %12 = getelementptr inbounds i8, ptr %9, i64 %11
  %13 = load i8, ptr %12, align 1, !tbaa !12
  %14 = icmp ne i8 %13, 0
  br i1 %14, label %15, label %34

15:                                               ; preds = %8
  %16 = load ptr, ptr %5, align 8, !tbaa !4
  %17 = load i32, ptr %6, align 4, !tbaa !17
  %18 = sext i32 %17 to i64
  %19 = getelementptr inbounds i8, ptr %16, i64 %18
  %20 = load i8, ptr %19, align 1, !tbaa !12
  %21 = sext i8 %20 to i32
  %22 = load ptr, ptr %4, align 8, !tbaa !4
  %23 = load i32, ptr %6, align 4, !tbaa !17
  %24 = sext i32 %23 to i64
  %25 = getelementptr inbounds i8, ptr %22, i64 %24
  %26 = load i8, ptr %25, align 1, !tbaa !12
  %27 = sext i8 %26 to i32
  %28 = icmp ne i32 %21, %27
  br i1 %28, label %29, label %30

29:                                               ; preds = %15
  store i32 0, ptr %3, align 4
  store i32 1, ptr %7, align 4
  br label %73

30:                                               ; preds = %15
  br label %31

31:                                               ; preds = %30
  %32 = load i32, ptr %6, align 4, !tbaa !17
  %33 = add nsw i32 %32, 1
  store i32 %33, ptr %6, align 4, !tbaa !17
  br label %8, !llvm.loop !79

34:                                               ; preds = %8
  %35 = load ptr, ptr %4, align 8, !tbaa !4
  %36 = load i32, ptr %6, align 4, !tbaa !17
  %37 = sext i32 %36 to i64
  %38 = getelementptr inbounds i8, ptr %35, i64 %37
  %39 = load i8, ptr %38, align 1, !tbaa !12
  %40 = sext i8 %39 to i32
  %41 = sub nsw i32 %40, 48
  %42 = icmp ule i32 %41, 9
  br i1 %42, label %69, label %43

43:                                               ; preds = %34
  %44 = load ptr, ptr %4, align 8, !tbaa !4
  %45 = load i32, ptr %6, align 4, !tbaa !17
  %46 = sext i32 %45 to i64
  %47 = getelementptr inbounds i8, ptr %44, i64 %46
  %48 = load i8, ptr %47, align 1, !tbaa !12
  %49 = sext i8 %48 to i32
  %50 = sub nsw i32 %49, 97
  %51 = icmp ule i32 %50, 25
  br i1 %51, label %69, label %52

52:                                               ; preds = %43
  %53 = load ptr, ptr %4, align 8, !tbaa !4
  %54 = load i32, ptr %6, align 4, !tbaa !17
  %55 = sext i32 %54 to i64
  %56 = getelementptr inbounds i8, ptr %53, i64 %55
  %57 = load i8, ptr %56, align 1, !tbaa !12
  %58 = sext i8 %57 to i32
  %59 = sub nsw i32 %58, 65
  %60 = icmp ule i32 %59, 25
  br i1 %60, label %69, label %61

61:                                               ; preds = %52
  %62 = load ptr, ptr %4, align 8, !tbaa !4
  %63 = load i32, ptr %6, align 4, !tbaa !17
  %64 = sext i32 %63 to i64
  %65 = getelementptr inbounds i8, ptr %62, i64 %64
  %66 = load i8, ptr %65, align 1, !tbaa !12
  %67 = sext i8 %66 to i32
  %68 = icmp eq i32 %67, 95
  br label %69

69:                                               ; preds = %61, %52, %43, %34
  %70 = phi i1 [ true, %52 ], [ true, %43 ], [ true, %34 ], [ %68, %61 ]
  %71 = xor i1 %70, true
  %72 = zext i1 %71 to i32
  store i32 %72, ptr %3, align 4
  store i32 1, ptr %7, align 4
  br label %73

73:                                               ; preds = %69, %29
  call void @llvm.lifetime.end.p0(i64 4, ptr %6) #12
  %74 = load i32, ptr %3, align 4
  ret i32 %74
}