; Function Attrs: nofree norecurse nosync nounwind memory(argmem: read) uwtable
define internal fastcc range(i32 0, 2) i32 @strmatch(ptr noundef readonly captures(none) %0, ptr noundef readonly captures(none) %1) unnamed_addr #10 {
  %3 = load i8, ptr %1, align 1, !tbaa !4
  %.not26 = icmp eq i8 %3, 0
  br i1 %.not26, label %._crit_edge, label %.lr.ph

4:                                                ; preds = %.lr.ph
  %indvars.iv.next = add nuw nsw i64 %indvars.iv, 1
  %5 = getelementptr inbounds nuw i8, ptr %1, i64 %indvars.iv.next
  %6 = load i8, ptr %5, align 1, !tbaa !4
  %.not = icmp eq i8 %6, 0
  br i1 %.not, label %._crit_edge, label %.lr.ph, !llvm.loop !64

.lr.ph:                                           ; preds = %2, %4
  %indvars.iv = phi i64 [ %indvars.iv.next, %4 ], [ 0, %2 ]
  %7 = phi i8 [ %6, %4 ], [ %3, %2 ]
  %8 = getelementptr inbounds nuw i8, ptr %0, i64 %indvars.iv
  %9 = load i8, ptr %8, align 1, !tbaa !4
  %.not17 = icmp eq i8 %7, %9
  br i1 %.not17, label %4, label %.loopexit

._crit_edge:                                      ; preds = %4, %2
  %.lcssa = phi i64 [ 0, %2 ], [ %indvars.iv.next, %4 ]
  %10 = getelementptr inbounds nuw i8, ptr %0, i64 %.lcssa
  %11 = load i8, ptr %10, align 1, !tbaa !4
  %12 = sext i8 %11 to i32
  %13 = add nsw i32 %12, -58
  %14 = icmp ult i32 %13, -10
  %15 = add nsw i32 %12, -123
  %16 = icmp ult i32 %15, -26
  %or.cond.not24 = select i1 %14, i1 %16, i1 false
  %17 = add nsw i32 %12, -91
  %18 = icmp ult i32 %17, -26
  %or.cond20.not = select i1 %or.cond.not24, i1 %18, i1 false
  %19 = icmp ne i8 %11, 95
  %narrow = select i1 %or.cond20.not, i1 %19, i1 false
  %20 = zext i1 %narrow to i32
  br label %.loopexit

.loopexit:                                        ; preds = %.lr.ph, %._crit_edge
  %.015 = phi i32 [ %20, %._crit_edge ], [ 0, %.lr.ph ]
  ret i32 %.015
}